; ModuleID = '22/571.c'
source_filename = "22/571.c"
target datalayout = "e-m:e-p270:32:32-p271:32:32-p272:64:64-i64:64-f80:128-n8:16:32:64-S128"
target triple = "x86_64-pc-linux-gnu"

@.str = private unnamed_addr constant [5 x i8] c"%d%c\00", align 1
@.str.1 = private unnamed_addr constant [3 x i8] c"No\00", align 1
@.str.2 = private unnamed_addr constant [3 x i8] c"%d\00", align 1

; Function Attrs: noinline nounwind uwtable
define dso_local void @main() #0 {
  %1 = alloca i32, align 4
  %2 = alloca i32, align 4
  %3 = alloca i32, align 4
  %4 = alloca [100 x i32], align 16
  %5 = alloca i32, align 4
  %6 = alloca i32, align 4
  %7 = alloca i8, align 1
  store i32 0, i32* %1, align 4
  store i32 0, i32* %6, align 4
  br label %8

8:                                                ; preds = %15, %0
  %9 = load i32, i32* %1, align 4
  %10 = sext i32 %9 to i64
  %11 = getelementptr inbounds [100 x i32], [100 x i32]* %4, i64 0, i64 %10
  %12 = call i32 (i8*, ...) @__isoc99_scanf(i8* getelementptr inbounds ([5 x i8], [5 x i8]* @.str, i64 0, i64 0), i32* %11, i8* %7)
  %13 = load i32, i32* %1, align 4
  %14 = add nsw i32 %13, 1
  store i32 %14, i32* %1, align 4
  br label %15

15:                                               ; preds = %8
  %16 = load i8, i8* %7, align 1
  %17 = sext i8 %16 to i32
  %18 = icmp eq i32 %17, 44
  br i1 %18, label %8, label %19

19:                                               ; preds = %15
  %20 = load i32, i32* %1, align 4
  store i32 %20, i32* %3, align 4
  %21 = load i32, i32* %3, align 4
  %22 = icmp eq i32 %21, 1
  br i1 %22, label %23, label %25

23:                                               ; preds = %19
  %24 = call i32 (i8*, ...) @printf(i8* getelementptr inbounds ([3 x i8], [3 x i8]* @.str.1, i64 0, i64 0))
  br label %131

25:                                               ; preds = %19
  store i32 0, i32* %1, align 4
  br label %26

26:                                               ; preds = %72, %25
  %27 = load i32, i32* %1, align 4
  %28 = load i32, i32* %3, align 4
  %29 = icmp slt i32 %27, %28
  br i1 %29, label %30, label %75

30:                                               ; preds = %26
  store i32 0, i32* %2, align 4
  br label %31

31:                                               ; preds = %68, %30
  %32 = load i32, i32* %2, align 4
  %33 = load i32, i32* %3, align 4
  %34 = load i32, i32* %1, align 4
  %35 = sub nsw i32 %33, %34
  %36 = sub nsw i32 %35, 1
  %37 = icmp slt i32 %32, %36
  br i1 %37, label %38, label %71

38:                                               ; preds = %31
  %39 = load i32, i32* %2, align 4
  %40 = sext i32 %39 to i64
  %41 = getelementptr inbounds [100 x i32], [100 x i32]* %4, i64 0, i64 %40
  %42 = load i32, i32* %41, align 4
  %43 = load i32, i32* %2, align 4
  %44 = add nsw i32 %43, 1
  %45 = sext i32 %44 to i64
  %46 = getelementptr inbounds [100 x i32], [100 x i32]* %4, i64 0, i64 %45
  %47 = load i32, i32* %46, align 4
  %48 = icmp slt i32 %42, %47
  br i1 %48, label %49, label %67

49:                                               ; preds = %38
  %50 = load i32, i32* %2, align 4
  %51 = sext i32 %50 to i64
  %52 = getelementptr inbounds [100 x i32], [100 x i32]* %4, i64 0, i64 %51
  %53 = load i32, i32* %52, align 4
  store i32 %53, i32* %5, align 4
  %54 = load i32, i32* %2, align 4
  %55 = add nsw i32 %54, 1
  %56 = sext i32 %55 to i64
  %57 = getelementptr inbounds [100 x i32], [100 x i32]* %4, i64 0, i64 %56
  %58 = load i32, i32* %57, align 4
  %59 = load i32, i32* %2, align 4
  %60 = sext i32 %59 to i64
  %61 = getelementptr inbounds [100 x i32], [100 x i32]* %4, i64 0, i64 %60
  store i32 %58, i32* %61, align 4
  %62 = load i32, i32* %5, align 4
  %63 = load i32, i32* %2, align 4
  %64 = add nsw i32 %63, 1
  %65 = sext i32 %64 to i64
  %66 = getelementptr inbounds [100 x i32], [100 x i32]* %4, i64 0, i64 %65
  store i32 %62, i32* %66, align 4
  br label %67

67:                                               ; preds = %49, %38
  br label %68

68:                                               ; preds = %67
  %69 = load i32, i32* %2, align 4
  %70 = add nsw i32 %69, 1
  store i32 %70, i32* %2, align 4
  br label %31

71:                                               ; preds = %31
  br label %72

72:                                               ; preds = %71
  %73 = load i32, i32* %1, align 4
  %74 = add nsw i32 %73, 1
  store i32 %74, i32* %1, align 4
  br label %26

75:                                               ; preds = %26
  store i32 0, i32* %2, align 4
  br label %76

76:                                               ; preds = %96, %75
  %77 = load i32, i32* %2, align 4
  %78 = load i32, i32* %3, align 4
  %79 = sub nsw i32 %78, 1
  %80 = icmp slt i32 %77, %79
  br i1 %80, label %81, label %99

81:                                               ; preds = %76
  %82 = load i32, i32* %2, align 4
  %83 = sext i32 %82 to i64
  %84 = getelementptr inbounds [100 x i32], [100 x i32]* %4, i64 0, i64 %83
  %85 = load i32, i32* %84, align 4
  %86 = load i32, i32* %2, align 4
  %87 = add nsw i32 %86, 1
  %88 = sext i32 %87 to i64
  %89 = getelementptr inbounds [100 x i32], [100 x i32]* %4, i64 0, i64 %88
  %90 = load i32, i32* %89, align 4
  %91 = icmp eq i32 %85, %90
  br i1 %91, label %92, label %95

92:                                               ; preds = %81
  %93 = load i32, i32* %6, align 4
  %94 = add nsw i32 %93, 1
  store i32 %94, i32* %6, align 4
  br label %95

95:                                               ; preds = %92, %81
  br label %96

96:                                               ; preds = %95
  %97 = load i32, i32* %2, align 4
  %98 = add nsw i32 %97, 1
  store i32 %98, i32* %2, align 4
  br label %76

99:                                               ; preds = %76
  %100 = load i32, i32* %6, align 4
  %101 = load i32, i32* %3, align 4
  %102 = sub nsw i32 %101, 1
  %103 = icmp eq i32 %100, %102
  br i1 %103, label %104, label %106

104:                                              ; preds = %99
  %105 = call i32 (i8*, ...) @printf(i8* getelementptr inbounds ([3 x i8], [3 x i8]* @.str.1, i64 0, i64 0))
  br label %130

106:                                              ; preds = %99
  store i32 0, i32* %1, align 4
  br label %107

107:                                              ; preds = %126, %106
  %108 = load i32, i32* %1, align 4
  %109 = load i32, i32* %3, align 4
  %110 = icmp slt i32 %108, %109
  br i1 %110, label %111, label %129

111:                                              ; preds = %107
  %112 = load i32, i32* %1, align 4
  %113 = sext i32 %112 to i64
  %114 = getelementptr inbounds [100 x i32], [100 x i32]* %4, i64 0, i64 %113
  %115 = load i32, i32* %114, align 4
  %116 = getelementptr inbounds [100 x i32], [100 x i32]* %4, i64 0, i64 0
  %117 = load i32, i32* %116, align 16
  %118 = icmp slt i32 %115, %117
  br i1 %118, label %119, label %125

119:                                              ; preds = %111
  %120 = load i32, i32* %1, align 4
  %121 = sext i32 %120 to i64
  %122 = getelementptr inbounds [100 x i32], [100 x i32]* %4, i64 0, i64 %121
  %123 = load i32, i32* %122, align 4
  %124 = call i32 (i8*, ...) @printf(i8* getelementptr inbounds ([3 x i8], [3 x i8]* @.str.2, i64 0, i64 0), i32 %123)
  br label %129

125:                                              ; preds = %111
  br label %126

126:                                              ; preds = %125
  %127 = load i32, i32* %1, align 4
  %128 = add nsw i32 %127, 1
  store i32 %128, i32* %1, align 4
  br label %107

129:                                              ; preds = %119, %107
  br label %130

130:                                              ; preds = %129, %104
  br label %131

131:                                              ; preds = %130, %23
  ret void
}

declare dso_local i32 @__isoc99_scanf(i8*, ...) #1

declare dso_local i32 @printf(i8*, ...) #1


!llvm.module.flags = !{!0}
!llvm.ident = !{!1}

!0 = !{i32 1, !"wchar_size", i32 4}
!1 = !{!"clang version 10.0.0-4ubuntu1 "}
